; Function Attrs: mustprogress uwtable
define hidden void @_ZN4lean10update_appERKNS_4exprES2_S2_(ptr dead_on_unwind noalias writable writeonly sret(%"class.lean::expr") align 8 captures(none) initializes((0, 8)) %0, ptr noundef nonnull readonly align 8 captures(none) dereferenceable(8) %1, ptr noundef nonnull readonly align 8 captures(none) dereferenceable(8) %2, ptr noundef nonnull readonly align 8 captures(none) dereferenceable(8) %3) local_unnamed_addr #0 {
  %5 = load ptr, ptr %1, align 8, !tbaa !10
  %6 = getelementptr inbounds nuw i8, ptr %5, i64 8
  %7 = load ptr, ptr %6, align 8, !tbaa !10
  %8 = load ptr, ptr %2, align 8, !tbaa !10
  %9 = icmp eq ptr %7, %8
  br i1 %9, label %10, label %15

10:                                               ; preds = %4
  %11 = getelementptr inbounds nuw i8, ptr %5, i64 16
  %12 = load ptr, ptr %11, align 8, !tbaa !10
  %13 = load ptr, ptr %3, align 8, !tbaa !10
  %14 = icmp eq ptr %12, %13
  br i1 %14, label %36, label %15

15:                                               ; preds = %10, %4
  tail call void @llvm.experimental.noalias.scope.decl(metadata !98)
  %16 = ptrtoint ptr %8 to i64
  %17 = and i64 %16, 1
  %.not.i.i.i = icmp eq i64 %17, 0
  br i1 %.not.i.i.i, label %18, label %_ZNK4lean10object_ref10to_obj_argEv.exit.i

18:                                               ; preds = %15
  %.val.i.i.i.i = load i32, ptr %8, align 4, !tbaa !21, !noalias !98
  %19 = icmp sgt i32 %.val.i.i.i.i, 0
  br i1 %19, label %20, label %22, !prof !24

20:                                               ; preds = %18
  %21 = add nuw nsw i32 %.val.i.i.i.i, 1
  store i32 %21, ptr %8, align 4, !tbaa !21, !noalias !98
  br label %_ZNK4lean10object_ref10to_obj_argEv.exit.i

22:                                               ; preds = %18
  %.not.i.i.i.i = icmp eq i32 %.val.i.i.i.i, 0
  br i1 %.not.i.i.i.i, label %_ZNK4lean10object_ref10to_obj_argEv.exit.i, label %23

23:                                               ; preds = %22
  tail call void @lean_inc_ref_cold(ptr noundef nonnull %8), !noalias !98
  %.pre.i.i = load ptr, ptr %2, align 8, !tbaa !10, !noalias !98
  br label %_ZNK4lean10object_ref10to_obj_argEv.exit.i

_ZNK4lean10object_ref10to_obj_argEv.exit.i:       ; preds = %23, %22, %20, %15
  %24 = phi ptr [ %8, %15 ], [ %8, %20 ], [ %8, %22 ], [ %.pre.i.i, %23 ]
  %25 = load ptr, ptr %3, align 8, !tbaa !10, !noalias !98
  %26 = ptrtoint ptr %25 to i64
  %27 = and i64 %26, 1
  %.not.i.i2.i = icmp eq i64 %27, 0
  br i1 %.not.i.i2.i, label %28, label %_ZN4lean6mk_appERKNS_4exprES2_.exit

28:                                               ; preds = %_ZNK4lean10object_ref10to_obj_argEv.exit.i
  %.val.i.i.i3.i = load i32, ptr %25, align 4, !tbaa !21, !noalias !98
  %29 = icmp sgt i32 %.val.i.i.i3.i, 0
  br i1 %29, label %30, label %32, !prof !24

30:                                               ; preds = %28
  %31 = add nuw nsw i32 %.val.i.i.i3.i, 1
  store i32 %31, ptr %25, align 4, !tbaa !21, !noalias !98
  br label %_ZN4lean6mk_appERKNS_4exprES2_.exit

32:                                               ; preds = %28
  %.not.i.i.i4.i = icmp eq i32 %.val.i.i.i3.i, 0
  br i1 %.not.i.i.i4.i, label %_ZN4lean6mk_appERKNS_4exprES2_.exit, label %33

33:                                               ; preds = %32
  tail call void @lean_inc_ref_cold(ptr noundef nonnull %25), !noalias !98
  %.pre.i5.i = load ptr, ptr %3, align 8, !tbaa !10, !noalias !98
  br label %_ZN4lean6mk_appERKNS_4exprES2_.exit

_ZN4lean6mk_appERKNS_4exprES2_.exit:              ; preds = %_ZNK4lean10object_ref10to_obj_argEv.exit.i, %30, %32, %33
  %34 = phi ptr [ %25, %_ZNK4lean10object_ref10to_obj_argEv.exit.i ], [ %25, %30 ], [ %25, %32 ], [ %.pre.i5.i, %33 ]
  %35 = tail call ptr @lean_expr_mk_app(ptr noundef %24, ptr noundef %34), !noalias !98
  store ptr %35, ptr %0, align 8, !tbaa !10, !alias.scope !98
  br label %_ZN4lean4exprC2ERKS0_.exit

36:                                               ; preds = %10
  store ptr %5, ptr %0, align 8, !tbaa !10
  %37 = ptrtoint ptr %5 to i64
  %38 = and i64 %37, 1
  %.not.i.i.i7 = icmp eq i64 %38, 0
  br i1 %.not.i.i.i7, label %39, label %_ZN4lean4exprC2ERKS0_.exit

39:                                               ; preds = %36
  %.val.i.i.i.i8 = load i32, ptr %5, align 4, !tbaa !21
  %40 = icmp sgt i32 %.val.i.i.i.i8, 0
  br i1 %40, label %41, label %43, !prof !24

41:                                               ; preds = %39
  %42 = add nuw nsw i32 %.val.i.i.i.i8, 1
  store i32 %42, ptr %5, align 4, !tbaa !21
  br label %_ZN4lean4exprC2ERKS0_.exit

43:                                               ; preds = %39
  %.not.i.i.i.i9 = icmp eq i32 %.val.i.i.i.i8, 0
  br i1 %.not.i.i.i.i9, label %_ZN4lean4exprC2ERKS0_.exit, label %44

44:                                               ; preds = %43
  tail call void @lean_inc_ref_cold(ptr noundef nonnull %5)
  br label %_ZN4lean4exprC2ERKS0_.exit

_ZN4lean4exprC2ERKS0_.exit:                       ; preds = %44, %43, %41, %36, %_ZN4lean6mk_appERKNS_4exprES2_.exit
  ret void
}